target datalayout = "e-m:e-p270:32:32-p271:32:32-p272:64:64-i64:64-i128:128-f80:128-n8:16:32:64-S128"
target triple = "x86_64-pc-linux-gnu"

%struct.cpool = type { %struct.Curl_hash, i64, i64, i64, %struct.curltime, %struct.Curl_llist, ptr, ptr, ptr, ptr, i8 }
%struct.Curl_hash = type { ptr, ptr, ptr, ptr, i64, i64 }
%struct.curltime = type { i64, i32 }
%struct.Curl_llist = type { ptr, ptr, ptr, i64 }
%struct.easy_pollset = type { [5 x i32], i32, [5 x i8] }
%struct.Curl_share = type { i32, i32, i32, ptr, ptr, ptr, %struct.cpool, %struct.Curl_hash, ptr, ptr, ptr, i64, i64 }

; Function Attrs: nounwind uwtable
define dso_local i32 @Curl_cpool_add_waitfds(ptr noundef %0, ptr noundef %1) #0 {
  %3 = alloca i32, align 4
  %4 = alloca ptr, align 8
  %5 = alloca ptr, align 8
  %6 = alloca i32, align 4
  %7 = alloca ptr, align 8
  %8 = alloca %struct.easy_pollset, align 4
  %9 = alloca ptr, align 8
  %10 = alloca i32, align 4
  store ptr %0, ptr %4, align 8, !tbaa !4
  store ptr %1, ptr %5, align 8, !tbaa !153
  call void @llvm.lifetime.start.p0(i64 4, ptr %6) #6
  store i32 0, ptr %6, align 4, !tbaa !90
  br label %11

11:                                               ; preds = %2
  %12 = load ptr, ptr %4, align 8, !tbaa !4
  %13 = icmp ne ptr %12, null
  br i1 %13, label %14, label %41

14:                                               ; preds = %11
  %15 = load ptr, ptr %4, align 8, !tbaa !4
  %16 = getelementptr inbounds nuw %struct.cpool, ptr %15, i32 0, i32 8
  %17 = load ptr, ptr %16, align 8, !tbaa !88
  %18 = icmp ne ptr %17, null
  br i1 %18, label %19, label %32

19:                                               ; preds = %14
  %20 = load ptr, ptr %4, align 8, !tbaa !4
  %21 = getelementptr inbounds nuw %struct.cpool, ptr %20, i32 0, i32 8
  %22 = load ptr, ptr %21, align 8, !tbaa !88
  %23 = getelementptr inbounds nuw %struct.Curl_share, ptr %22, i32 0, i32 1
  %24 = load i32, ptr %23, align 4, !tbaa !91
  %25 = and i32 %24, 32
  %26 = icmp ne i32 %25, 0
  br i1 %26, label %27, label %32

27:                                               ; preds = %19
  %28 = load ptr, ptr %4, align 8, !tbaa !4
  %29 = getelementptr inbounds nuw %struct.cpool, ptr %28, i32 0, i32 6
  %30 = load ptr, ptr %29, align 8, !tbaa !16
  %31 = call i32 @Curl_share_lock(ptr noundef %30, i32 noundef 5, i32 noundef 2)
  br label %32

32:                                               ; preds = %27, %19, %14
  br label %33

33:                                               ; preds = %32
  br label %34

34:                                               ; preds = %33
  br label %35

35:                                               ; preds = %34
  %36 = load ptr, ptr %4, align 8, !tbaa !4
  %37 = getelementptr inbounds nuw %struct.cpool, ptr %36, i32 0, i32 10
  %38 = load i8, ptr %37, align 8
  %39 = and i8 %38, -2
  %40 = or i8 %39, 1
  store i8 %40, ptr %37, align 8
  br label %41

41:                                               ; preds = %35, %11
  br label %42

42:                                               ; preds = %41
  br label %43

43:                                               ; preds = %42
  %44 = load ptr, ptr %4, align 8, !tbaa !4
  %45 = getelementptr inbounds nuw %struct.cpool, ptr %44, i32 0, i32 5
  %46 = call ptr @Curl_llist_head(ptr noundef %45)
  %47 = icmp ne ptr %46, null
  br i1 %47, label %48, label %81

48:                                               ; preds = %43
  call void @llvm.lifetime.start.p0(i64 8, ptr %7) #6
  call void @llvm.lifetime.start.p0(i64 32, ptr %8) #6
  call void @llvm.lifetime.start.p0(i64 8, ptr %9) #6
  %49 = load ptr, ptr %4, align 8, !tbaa !4
  %50 = getelementptr inbounds nuw %struct.cpool, ptr %49, i32 0, i32 5
  %51 = call ptr @Curl_llist_head(ptr noundef %50)
  store ptr %51, ptr %7, align 8, !tbaa !123
  br label %52

52:                                               ; preds = %74, %48
  %53 = load ptr, ptr %7, align 8, !tbaa !123
  %54 = icmp ne ptr %53, null
  br i1 %54, label %55, label %77

55:                                               ; preds = %52
  %56 = load ptr, ptr %7, align 8, !tbaa !123
  %57 = call ptr @Curl_node_elem(ptr noundef %56)
  store ptr %57, ptr %9, align 8, !tbaa !93
  call void @llvm.memset.p0.i64(ptr align 4 %8, i8 0, i64 32, i1 false)
  %58 = load ptr, ptr %4, align 8, !tbaa !4
  %59 = getelementptr inbounds nuw %struct.cpool, ptr %58, i32 0, i32 6
  %60 = load ptr, ptr %59, align 8, !tbaa !16
  %61 = load ptr, ptr %9, align 8, !tbaa !93
  call void @Curl_attach_connection(ptr noundef %60, ptr noundef %61)
  %62 = load ptr, ptr %4, align 8, !tbaa !4
  %63 = getelementptr inbounds nuw %struct.cpool, ptr %62, i32 0, i32 6
  %64 = load ptr, ptr %63, align 8, !tbaa !16
  call void @Curl_conn_adjust_pollset(ptr noundef %64, ptr noundef %8)
  %65 = load ptr, ptr %4, align 8, !tbaa !4
  %66 = getelementptr inbounds nuw %struct.cpool, ptr %65, i32 0, i32 6
  %67 = load ptr, ptr %66, align 8, !tbaa !16
  call void @Curl_detach_connection(ptr noundef %67)
  %68 = load ptr, ptr %5, align 8, !tbaa !153
  %69 = call i32 @Curl_waitfds_add_ps(ptr noundef %68, ptr noundef %8)
  store i32 %69, ptr %6, align 4, !tbaa !90
  %70 = load i32, ptr %6, align 4, !tbaa !90
  %71 = icmp ne i32 %70, 0
  br i1 %71, label %72, label %73

72:                                               ; preds = %55
  store i32 9, ptr %10, align 4
  br label %78

73:                                               ; preds = %55
  br label %74

74:                                               ; preds = %73
  %75 = load ptr, ptr %7, align 8, !tbaa !123
  %76 = call ptr @Curl_node_next(ptr noundef %75)
  store ptr %76, ptr %7, align 8, !tbaa !123
  br label %52, !llvm.loop !155

77:                                               ; preds = %52
  store i32 0, ptr %10, align 4
  br label %78

78:                                               ; preds = %72, %77
  call void @llvm.lifetime.end.p0(i64 8, ptr %9) #6
  call void @llvm.lifetime.end.p0(i64 32, ptr %8) #6
  call void @llvm.lifetime.end.p0(i64 8, ptr %7) #6
  %79 = load i32, ptr %10, align 4
  switch i32 %79, label %117 [
    i32 0, label %80
    i32 9, label %82
  ]

80:                                               ; preds = %78
  br label %81

81:                                               ; preds = %80, %43
  br label %82

82:                                               ; preds = %81, %78
  br label %83

83:                                               ; preds = %82
  %84 = load ptr, ptr %4, align 8, !tbaa !4
  %85 = icmp ne ptr %84, null
  br i1 %85, label %86, label %113

86:                                               ; preds = %83
  br label %87

87:                                               ; preds = %86
  br label %88

88:                                               ; preds = %87
  br label %89

89:                                               ; preds = %88
  %90 = load ptr, ptr %4, align 8, !tbaa !4
  %91 = getelementptr inbounds nuw %struct.cpool, ptr %90, i32 0, i32 10
  %92 = load i8, ptr %91, align 8
  %93 = and i8 %92, -2
  %94 = or i8 %93, 0
  store i8 %94, ptr %91, align 8
  %95 = load ptr, ptr %4, align 8, !tbaa !4
  %96 = getelementptr inbounds nuw %struct.cpool, ptr %95, i32 0, i32 8
  %97 = load ptr, ptr %96, align 8, !tbaa !88
  %98 = icmp ne ptr %97, null
  br i1 %98, label %99, label %112

99:                                               ; preds = %89
  %100 = load ptr, ptr %4, align 8, !tbaa !4
  %101 = getelementptr inbounds nuw %struct.cpool, ptr %100, i32 0, i32 8
  %102 = load ptr, ptr %101, align 8, !tbaa !88
  %103 = getelementptr inbounds nuw %struct.Curl_share, ptr %102, i32 0, i32 1
  %104 = load i32, ptr %103, align 4, !tbaa !91
  %105 = and i32 %104, 32
  %106 = icmp ne i32 %105, 0
  br i1 %106, label %107, label %112

107:                                              ; preds = %99
  %108 = load ptr, ptr %4, align 8, !tbaa !4
  %109 = getelementptr inbounds nuw %struct.cpool, ptr %108, i32 0, i32 6
  %110 = load ptr, ptr %109, align 8, !tbaa !16
  %111 = call i32 @Curl_share_unlock(ptr noundef %110, i32 noundef 5)
  br label %112

112:                                              ; preds = %107, %99, %89
  br label %113

113:                                              ; preds = %112, %83
  br label %114

114:                                              ; preds = %113
  br label %115

115:                                              ; preds = %114
  %116 = load i32, ptr %6, align 4, !tbaa !90
  store i32 %116, ptr %3, align 4
  store i32 1, ptr %10, align 4
  br label %117

117:                                              ; preds = %115, %78
  call void @llvm.lifetime.end.p0(i64 4, ptr %6) #6
  %118 = load i32, ptr %3, align 4
  ret i32 %118
}