; Function Attrs: nounwind uwtable
define dso_local i32 @Curl_cpool_add_waitfds(ptr noundef %0, ptr noundef %1) local_unnamed_addr #0 {
  %3 = alloca %struct.easy_pollset, align 4
  %.not = icmp eq ptr %0, null
  br i1 %.not, label %19, label %4

4:                                                ; preds = %2
  %5 = getelementptr inbounds nuw i8, ptr %0, i64 136
  %6 = load ptr, ptr %5, align 8, !tbaa !82
  %.not32 = icmp eq ptr %6, null
  br i1 %.not32, label %15, label %7

7:                                                ; preds = %4
  %8 = getelementptr inbounds nuw i8, ptr %6, i64 4
  %9 = load i32, ptr %8, align 4, !tbaa !90
  %10 = and i32 %9, 32
  %.not33 = icmp eq i32 %10, 0
  br i1 %.not33, label %15, label %11

11:                                               ; preds = %7
  %12 = getelementptr inbounds nuw i8, ptr %0, i64 120
  %13 = load ptr, ptr %12, align 8, !tbaa !4
  %14 = tail call i32 @Curl_share_lock(ptr noundef %13, i32 noundef 5, i32 noundef 2) #7
  br label %15

15:                                               ; preds = %4, %7, %11
  %16 = getelementptr inbounds nuw i8, ptr %0, i64 152
  %17 = load i8, ptr %16, align 8
  %18 = or i8 %17, 1
  store i8 %18, ptr %16, align 8
  br label %19

19:                                               ; preds = %15, %2
  %20 = getelementptr inbounds nuw i8, ptr %0, i64 88
  %21 = tail call ptr @Curl_llist_head(ptr noundef nonnull %20) #7
  %.not34 = icmp eq ptr %21, null
  br i1 %.not34, label %33, label %22

22:                                               ; preds = %19
  call void @llvm.lifetime.start.p0(i64 32, ptr nonnull %3) #7
  %23 = tail call ptr @Curl_llist_head(ptr noundef nonnull %20) #7
  %.not3539 = icmp eq ptr %23, null
  br i1 %.not3539, label %._crit_edge, label %.lr.ph

.lr.ph:                                           ; preds = %22
  %24 = getelementptr inbounds nuw i8, ptr %0, i64 120
  br label %25

25:                                               ; preds = %.lr.ph, %31
  %.02440 = phi ptr [ %23, %.lr.ph ], [ %32, %31 ]
  %26 = call ptr @Curl_node_elem(ptr noundef nonnull %.02440) #7
  call void @llvm.memset.p0.i64(ptr noundef nonnull align 4 dereferenceable(32) %3, i8 0, i64 32, i1 false)
  %27 = load ptr, ptr %24, align 8, !tbaa !4
  call void @Curl_attach_connection(ptr noundef %27, ptr noundef %26) #7
  %28 = load ptr, ptr %24, align 8, !tbaa !4
  call void @Curl_conn_adjust_pollset(ptr noundef %28, ptr noundef nonnull %3) #7
  %29 = load ptr, ptr %24, align 8, !tbaa !4
  call void @Curl_detach_connection(ptr noundef %29) #7
  %30 = call i32 @Curl_waitfds_add_ps(ptr noundef %1, ptr noundef nonnull %3) #7
  %.not36 = icmp eq i32 %30, 0
  br i1 %.not36, label %31, label %._crit_edge

31:                                               ; preds = %25
  %32 = call ptr @Curl_node_next(ptr noundef nonnull %.02440) #7
  %.not35 = icmp eq ptr %32, null
  br i1 %.not35, label %._crit_edge, label %25, !llvm.loop !151

._crit_edge:                                      ; preds = %25, %31, %22
  %.1 = phi i32 [ 0, %22 ], [ 0, %31 ], [ %30, %25 ]
  call void @llvm.lifetime.end.p0(i64 32, ptr nonnull %3) #7
  br label %33

33:                                               ; preds = %19, %._crit_edge
  %.2 = phi i32 [ %.1, %._crit_edge ], [ 0, %19 ]
  %34 = getelementptr inbounds nuw i8, ptr %0, i64 152
  %35 = load i8, ptr %34, align 8
  %36 = and i8 %35, -2
  store i8 %36, ptr %34, align 8
  %37 = getelementptr inbounds nuw i8, ptr %0, i64 136
  %38 = load ptr, ptr %37, align 8, !tbaa !82
  %.not37 = icmp eq ptr %38, null
  br i1 %.not37, label %47, label %39

39:                                               ; preds = %33
  %40 = getelementptr inbounds nuw i8, ptr %38, i64 4
  %41 = load i32, ptr %40, align 4, !tbaa !90
  %42 = and i32 %41, 32
  %.not38 = icmp eq i32 %42, 0
  br i1 %.not38, label %47, label %43

43:                                               ; preds = %39
  %44 = getelementptr inbounds nuw i8, ptr %0, i64 120
  %45 = load ptr, ptr %44, align 8, !tbaa !4
  %46 = call i32 @Curl_share_unlock(ptr noundef %45, i32 noundef 5) #7
  br label %47

47:                                               ; preds = %43, %39, %33
  ret i32 %.2
}